target datalayout = "e-m:e-p270:32:32-p271:32:32-p272:64:64-i64:64-i128:128-f80:128-n8:16:32:64-S128"
target triple = "x86_64-pc-linux-gnu"

%struct.dirent = type { i64, i64, i16, i8, [256 x i8] }

@.str = private unnamed_addr constant [4 x i8] c"%s/\00", align 1
@.str.1 = private unnamed_addr constant [25 x i8] c"Can't open directory: %s\00", align 1
@.str.2 = private unnamed_addr constant [2 x i8] c".\00", align 1
@.str.3 = private unnamed_addr constant [3 x i8] c"..\00", align 1

; Function Attrs: nounwind uwtable
define hidden zeroext i1 @SDL_SYS_EnumerateDirectory(ptr noundef %0, ptr noundef %1, ptr noundef %2) #0 {
  %4 = alloca i1, align 1
  %5 = alloca ptr, align 8
  %6 = alloca ptr, align 8
  %7 = alloca ptr, align 8
  %8 = alloca ptr, align 8
  %9 = alloca i32, align 4
  %10 = alloca i32, align 4
  %11 = alloca ptr, align 8
  %12 = alloca i32, align 4
  %13 = alloca ptr, align 8
  %14 = alloca ptr, align 8
  store ptr %0, ptr %5, align 8
  store ptr %1, ptr %6, align 8
  store ptr %2, ptr %7, align 8
  call void @llvm.lifetime.start.p0(i64 8, ptr %8) #6
  store ptr null, ptr %8, align 8
  call void @llvm.lifetime.start.p0(i64 4, ptr %9) #6
  %15 = load ptr, ptr %5, align 8
  %16 = call i32 (ptr, ptr, ...) @SDL_asprintf_REAL(ptr noundef %8, ptr noundef @.str, ptr noundef %15)
  store i32 %16, ptr %9, align 4
  %17 = load i32, ptr %9, align 4
  %18 = icmp eq i32 %17, -1
  br i1 %18, label %22, label %19

19:                                               ; preds = %3
  %20 = load ptr, ptr %8, align 8
  %21 = icmp ne ptr %20, null
  br i1 %21, label %23, label %22

22:                                               ; preds = %19, %3
  store i1 false, ptr %4, align 1
  store i32 1, ptr %10, align 4
  br label %104

23:                                               ; preds = %19
  %24 = load i32, ptr %9, align 4
  %25 = add nsw i32 %24, -1
  store i32 %25, ptr %9, align 4
  br label %26

26:                                               ; preds = %39, %23
  %27 = load i32, ptr %9, align 4
  %28 = icmp sge i32 %27, 0
  br i1 %28, label %29, label %37

29:                                               ; preds = %26
  %30 = load ptr, ptr %8, align 8
  %31 = load i32, ptr %9, align 4
  %32 = sext i32 %31 to i64
  %33 = getelementptr inbounds i8, ptr %30, i64 %32
  %34 = load i8, ptr %33, align 1
  %35 = sext i8 %34 to i32
  %36 = icmp eq i32 %35, 47
  br label %37

37:                                               ; preds = %29, %26
  %38 = phi i1 [ false, %26 ], [ %36, %29 ]
  br i1 %38, label %39, label %45

39:                                               ; preds = %37
  %40 = load ptr, ptr %8, align 8
  %41 = load i32, ptr %9, align 4
  %42 = add nsw i32 %41, -1
  store i32 %42, ptr %9, align 4
  %43 = sext i32 %41 to i64
  %44 = getelementptr inbounds i8, ptr %40, i64 %43
  store i8 0, ptr %44, align 1
  br label %26, !llvm.loop !3

45:                                               ; preds = %37
  call void @llvm.lifetime.start.p0(i64 8, ptr %11) #6
  %46 = load ptr, ptr %8, align 8
  %47 = call noalias ptr @opendir(ptr noundef %46)
  store ptr %47, ptr %11, align 8
  %48 = load ptr, ptr %11, align 8
  %49 = icmp ne ptr %48, null
  br i1 %49, label %56, label %50

50:                                               ; preds = %45
  %51 = load ptr, ptr %8, align 8
  call void @SDL_free_REAL(ptr noundef %51)
  %52 = call ptr @__errno_location() #7
  %53 = load i32, ptr %52, align 4
  %54 = call ptr @strerror(i32 noundef %53) #6
  %55 = call zeroext i1 (ptr, ...) @SDL_SetError_REAL(ptr noundef @.str.1, ptr noundef %54)
  store i1 %55, ptr %4, align 1
  store i32 1, ptr %10, align 4
  br label %103

56:                                               ; preds = %45
  %57 = load ptr, ptr %8, align 8
  %58 = load i32, ptr %9, align 4
  %59 = add nsw i32 %58, 1
  store i32 %59, ptr %9, align 4
  %60 = sext i32 %59 to i64
  %61 = getelementptr inbounds i8, ptr %57, i64 %60
  store i8 47, ptr %61, align 1
  %62 = load ptr, ptr %8, align 8
  %63 = load i32, ptr %9, align 4
  %64 = add nsw i32 %63, 1
  store i32 %64, ptr %9, align 4
  %65 = sext i32 %64 to i64
  %66 = getelementptr inbounds i8, ptr %62, i64 %65
  store i8 0, ptr %66, align 1
  call void @llvm.lifetime.start.p0(i64 4, ptr %12) #6
  store i32 0, ptr %12, align 4
  call void @llvm.lifetime.start.p0(i64 8, ptr %13) #6
  br label %67

67:                                               ; preds = %96, %94, %56
  %68 = load i32, ptr %12, align 4
  %69 = icmp eq i32 %68, 0
  br i1 %69, label %70, label %74

70:                                               ; preds = %67
  %71 = load ptr, ptr %11, align 8
  %72 = call ptr @readdir(ptr noundef %71)
  store ptr %72, ptr %13, align 8
  %73 = icmp ne ptr %72, null
  br label %74

74:                                               ; preds = %70, %67
  %75 = phi i1 [ false, %67 ], [ %73, %70 ]
  br i1 %75, label %76, label %97

76:                                               ; preds = %74
  call void @llvm.lifetime.start.p0(i64 8, ptr %14) #6
  %77 = load ptr, ptr %13, align 8
  %78 = getelementptr inbounds nuw %struct.dirent, ptr %77, i32 0, i32 4
  %79 = getelementptr inbounds [256 x i8], ptr %78, i64 0, i64 0
  store ptr %79, ptr %14, align 8
  %80 = load ptr, ptr %14, align 8
  %81 = call i32 @SDL_strcmp_REAL(ptr noundef %80, ptr noundef @.str.2)
  %82 = icmp eq i32 %81, 0
  br i1 %82, label %87, label %83

83:                                               ; preds = %76
  %84 = load ptr, ptr %14, align 8
  %85 = call i32 @SDL_strcmp_REAL(ptr noundef %84, ptr noundef @.str.3)
  %86 = icmp eq i32 %85, 0
  br i1 %86, label %87, label %88

87:                                               ; preds = %83, %76
  store i32 4, ptr %10, align 4
  br label %94, !llvm.loop !5

88:                                               ; preds = %83
  %89 = load ptr, ptr %6, align 8
  %90 = load ptr, ptr %7, align 8
  %91 = load ptr, ptr %8, align 8
  %92 = load ptr, ptr %14, align 8
  %93 = call i32 %89(ptr noundef %90, ptr noundef %91, ptr noundef %92)
  store i32 %93, ptr %12, align 4
  store i32 0, ptr %10, align 4
  br label %94

94:                                               ; preds = %88, %87
  call void @llvm.lifetime.end.p0(i64 8, ptr %14) #6
  %95 = load i32, ptr %10, align 4
  switch i32 %95, label %106 [
    i32 0, label %96
    i32 4, label %67
  ]

96:                                               ; preds = %94
  br label %67, !llvm.loop !5

97:                                               ; preds = %74
  %98 = load ptr, ptr %11, align 8
  %99 = call i32 @closedir(ptr noundef %98)
  %100 = load ptr, ptr %8, align 8
  call void @SDL_free_REAL(ptr noundef %100)
  %101 = load i32, ptr %12, align 4
  %102 = icmp ne i32 %101, 2
  store i1 %102, ptr %4, align 1
  store i32 1, ptr %10, align 4
  call void @llvm.lifetime.end.p0(i64 8, ptr %13) #6
  call void @llvm.lifetime.end.p0(i64 4, ptr %12) #6
  br label %103

103:                                              ; preds = %97, %50
  call void @llvm.lifetime.end.p0(i64 8, ptr %11) #6
  br label %104

104:                                              ; preds = %103, %22
  call void @llvm.lifetime.end.p0(i64 4, ptr %9) #6
  call void @llvm.lifetime.end.p0(i64 8, ptr %8) #6
  %105 = load i1, ptr %4, align 1
  ret i1 %105

106:                                              ; preds = %94
  unreachable
}