; Function Attrs: nounwind uwtable
define hidden zeroext i1 @SDL_SYS_EnumerateDirectory(ptr noundef %0, ptr noundef readonly captures(none) %1, ptr noundef %2) local_unnamed_addr #0 {
  %4 = alloca ptr, align 8
  call void @llvm.lifetime.start.p0(i64 8, ptr nonnull %4) #7
  store ptr null, ptr %4, align 8
  %5 = call i32 (ptr, ptr, ...) @SDL_asprintf_REAL(ptr noundef nonnull %4, ptr noundef nonnull @.str, ptr noundef %0) #7
  %6 = icmp ne i32 %5, -1
  %7 = load ptr, ptr %4, align 8
  %8 = icmp ne ptr %7, null
  %or.cond = select i1 %6, i1 %8, i1 false
  br i1 %or.cond, label %.preheader, label %49

.preheader:                                       ; preds = %3
  %9 = icmp sgt i32 %5, 0
  br i1 %9, label %.lr.ph.preheader, label %.critedge

.lr.ph.preheader:                                 ; preds = %.preheader
  %10 = zext nneg i32 %5 to i64
  br label %.lr.ph

.lr.ph:                                           ; preds = %.lr.ph.preheader, %15
  %indvars.iv = phi i64 [ %10, %.lr.ph.preheader ], [ %indvars.iv.next, %15 ]
  %indvars.iv.next = add nsw i64 %indvars.iv, -1
  %11 = load ptr, ptr %4, align 8
  %12 = getelementptr inbounds nuw i8, ptr %11, i64 %indvars.iv.next
  %13 = load i8, ptr %12, align 1
  %14 = icmp eq i8 %13, 47
  br i1 %14, label %15, label %.critedge.loopexitsplit

15:                                               ; preds = %.lr.ph
  store i8 0, ptr %12, align 1
  %16 = icmp samesign ugt i64 %indvars.iv, 1
  br i1 %16, label %.lr.ph, label %..critedge.loopexit_crit_edge, !llvm.loop !3

..critedge.loopexit_crit_edge:                    ; preds = %15
  %.pre.pre = load ptr, ptr %4, align 8
  br label %.critedge, !llvm.loop !3

.critedge.loopexitsplit:                          ; preds = %.lr.ph
  %17 = trunc nuw nsw i64 %indvars.iv to i32
  br label %.critedge

.critedge:                                        ; preds = %..critedge.loopexit_crit_edge, %.critedge.loopexitsplit, %.preheader
  %18 = phi ptr [ %7, %.preheader ], [ %.pre.pre, %..critedge.loopexit_crit_edge ], [ %11, %.critedge.loopexitsplit ]
  %.022.in.lcssa = phi i32 [ %5, %.preheader ], [ 0, %..critedge.loopexit_crit_edge ], [ %17, %.critedge.loopexitsplit ]
  %19 = call noalias ptr @opendir(ptr noundef %18)
  %.not = icmp eq ptr %19, null
  %20 = load ptr, ptr %4, align 8
  br i1 %.not, label %21, label %26

21:                                               ; preds = %.critedge
  call void @SDL_free_REAL(ptr noundef %20) #7
  %22 = tail call ptr @__errno_location() #8
  %23 = load i32, ptr %22, align 4
  %24 = call ptr @strerror(i32 noundef %23) #7
  %25 = call zeroext i1 (ptr, ...) @SDL_SetError_REAL(ptr noundef nonnull @.str.1, ptr noundef %24) #7
  br label %49

26:                                               ; preds = %.critedge
  %27 = sext i32 %.022.in.lcssa to i64
  %28 = getelementptr inbounds i8, ptr %20, i64 %27
  store i8 47, ptr %28, align 1
  %29 = load ptr, ptr %4, align 8
  %30 = getelementptr i8, ptr %29, i64 %27
  %31 = getelementptr i8, ptr %30, i64 1
  store i8 0, ptr %31, align 1
  br label %32

32:                                               ; preds = %26, %44
  %33 = call ptr @readdir(ptr noundef nonnull %19) #7
  %.not28 = icmp eq ptr %33, null
  br i1 %.not28, label %.critedge3, label %34

34:                                               ; preds = %32
  %35 = getelementptr inbounds nuw i8, ptr %33, i64 19
  %36 = call i32 @SDL_strcmp_REAL(ptr noundef nonnull %35, ptr noundef nonnull @.str.2) #7
  %37 = icmp eq i32 %36, 0
  br i1 %37, label %44, label %38, !llvm.loop !5

38:                                               ; preds = %34
  %39 = call i32 @SDL_strcmp_REAL(ptr noundef nonnull %35, ptr noundef nonnull @.str.3) #7
  %40 = icmp eq i32 %39, 0
  br i1 %40, label %44, label %41, !llvm.loop !5

41:                                               ; preds = %38
  %42 = load ptr, ptr %4, align 8
  %43 = call i32 %1(ptr noundef %2, ptr noundef %42, ptr noundef nonnull %35) #7
  br label %44

44:                                               ; preds = %34, %38, %41
  %.124 = phi i32 [ %43, %41 ], [ 0, %38 ], [ 0, %34 ]
  %45 = icmp eq i32 %.124, 0
  br i1 %45, label %32, label %.critedge3

.critedge3:                                       ; preds = %44, %32
  %.023.lcssa = phi i32 [ %.124, %44 ], [ 0, %32 ]
  %46 = call i32 @closedir(ptr noundef nonnull %19)
  %47 = load ptr, ptr %4, align 8
  call void @SDL_free_REAL(ptr noundef %47) #7
  %48 = icmp ne i32 %.023.lcssa, 2
  br label %49

49:                                               ; preds = %21, %.critedge3, %3
  %.0 = phi i1 [ false, %3 ], [ %48, %.critedge3 ], [ %25, %21 ]
  call void @llvm.lifetime.end.p0(i64 8, ptr nonnull %4) #7
  ret i1 %.0
}